; Function Attrs: null_pointer_is_valid sspstrong uwtable
define ptr @fragment_delete(ptr noundef readonly captures(none) %0, ptr noundef %1, i32 noundef %2, ptr noundef %3) local_unnamed_addr #2 {
  %5 = alloca ptr, align 8
  %6 = alloca ptr, align 8
  call void @llvm.lifetime.start.p0(i64 8, ptr nonnull %6) #18
  call void @llvm.lifetime.start.p0(i64 8, ptr nonnull %5) #18
  %7 = getelementptr inbounds nuw i8, ptr %0, i64 16
  %8 = load ptr, ptr %7, align 8
  %9 = tail call ptr %8(ptr noundef %1, i32 noundef %2, ptr noundef %3)
  %10 = load ptr, ptr %0, align 8
  %11 = call i32 @g_hash_table_lookup_extended(ptr noundef %10, ptr noundef %9, ptr noundef nonnull %6, ptr noundef nonnull %5)
  %.not.i = icmp eq i32 %11, 0
  br i1 %.not.i, label %12, label %lookup_fd_head.exit

12:                                               ; preds = %4
  store ptr null, ptr %5, align 8
  br label %lookup_fd_head.exit

lookup_fd_head.exit:                              ; preds = %4, %12
  %13 = getelementptr inbounds nuw i8, ptr %0, i64 32
  %14 = load ptr, ptr %13, align 8
  call void %14(ptr noundef %9)
  %15 = load ptr, ptr %5, align 8
  call void @llvm.lifetime.end.p0(i64 8, ptr nonnull %5) #18
  %16 = icmp eq ptr %15, null
  br i1 %16, label %33, label %17

17:                                               ; preds = %lookup_fd_head.exit
  %18 = getelementptr inbounds nuw i8, ptr %15, i64 56
  %19 = load ptr, ptr %18, align 8
  %20 = load ptr, ptr %15, align 8
  %.not22 = icmp eq ptr %20, null
  br i1 %.not22, label %._crit_edge, label %.lr.ph

.lr.ph:                                           ; preds = %17, %29
  %.01723 = phi ptr [ %21, %29 ], [ %20, %17 ]
  %21 = load ptr, ptr %.01723, align 8
  %22 = getelementptr inbounds nuw i8, ptr %.01723, i64 24
  %23 = load ptr, ptr %22, align 8
  %.not20 = icmp eq ptr %23, null
  br i1 %.not20, label %29, label %24

24:                                               ; preds = %.lr.ph
  %25 = getelementptr inbounds nuw i8, ptr %.01723, i64 20
  %26 = load i32, ptr %25, align 4
  %27 = and i32 %26, 32
  %.not21 = icmp eq i32 %27, 0
  br i1 %.not21, label %28, label %29

28:                                               ; preds = %24
  call void @tvb_free(ptr noundef nonnull %23)
  br label %29

29:                                               ; preds = %.lr.ph, %24, %28
  call void @g_slice_free1(i64 noundef 32, ptr noundef nonnull %.01723)
  %.not = icmp eq ptr %21, null
  br i1 %.not, label %._crit_edge, label %.lr.ph, !llvm.loop !9

._crit_edge:                                      ; preds = %29, %17
  call void @g_slice_free1(i64 noundef 72, ptr noundef nonnull %15)
  %30 = load ptr, ptr %0, align 8
  %31 = load ptr, ptr %6, align 8
  %32 = call i32 @g_hash_table_remove(ptr noundef %30, ptr noundef %31)
  br label %33

33:                                               ; preds = %lookup_fd_head.exit, %._crit_edge
  %.0 = phi ptr [ %19, %._crit_edge ], [ null, %lookup_fd_head.exit ]
  call void @llvm.lifetime.end.p0(i64 8, ptr nonnull %6) #18
  ret ptr %.0
}